(dp0
S'params1'
p1
S''
p2
sS'engine'
p3
S'internal'
p4
sS'run'
p5
I00
sS'method0'
p6
S'pseudo-log-likelihood via BFGS'
p7
sS'method1'
p8
S'pseudo-log-likelihood'
p9
sS'geometry'
p10
S'674x675+581+55'
p11
sS'mln'
p12
S'smoking.mln'
p13
sS'priorStdDev'
p14
S'100'
p15
sS'db'
p16
S'smoking-train.db'
p17
sS'output_filename'
p18
S'test.mln'
p19
sS'params0'
p20
g2
sS'pattern'
p21
g2
sS'addUnitClauses'
p22
I0
sS'nePreds'
p23
g2
sS'usePrior'
p24
I0
s.